; Function Attrs: mustprogress uwtable
define hidden void @_ZN4cvc58internal6theory7strings12RegExpEntail21setConstantBoundCacheENS0_12NodeTemplateILb0EEENS4_ILb1EEEb(ptr noundef readonly captures(none) %0, ptr noundef %1, i1 noundef zeroext %2) local_unnamed_addr #3 align 2 personality ptr @__gxx_personality_v0 {
  %4 = alloca %"class.cvc5::internal::expr::Attribute.156", align 1
  %5 = alloca %"class.cvc5::internal::expr::Attribute", align 1
  %6 = load ptr, ptr %0, align 8, !tbaa !27
  %7 = getelementptr inbounds nuw i8, ptr %6, i64 16
  %8 = load ptr, ptr %7, align 8, !tbaa !41
  %9 = getelementptr inbounds nuw i8, ptr %8, i64 80
  %10 = load ptr, ptr %9, align 8, !tbaa !212
  br i1 %2, label %11, label %12

11:                                               ; preds = %3
  call void @llvm.lifetime.start.p0(i64 1, ptr nonnull %5) #22
  call void @_ZN4cvc58internal4expr4attr16AttributeManager12setAttributeINS1_9AttributeINS0_6theory7strings32RegExpEntailConstantBoundLowerIdENS0_12NodeTemplateILb1EEEEEEEvPNS1_9NodeValueERKT_RKNSE_10value_typeE(ptr noundef nonnull align 8 dereferenceable(344) %10, ptr noundef nonnull %6, ptr noundef nonnull align 1 dereferenceable(1) %5, ptr noundef nonnull align 8 dereferenceable(8) %1)
  call void @llvm.lifetime.end.p0(i64 1, ptr nonnull %5) #22
  br label %13

12:                                               ; preds = %3
  call void @llvm.lifetime.start.p0(i64 1, ptr nonnull %4) #22
  call void @_ZN4cvc58internal4expr4attr16AttributeManager12setAttributeINS1_9AttributeINS0_6theory7strings32RegExpEntailConstantBoundUpperIdENS0_12NodeTemplateILb1EEEEEEEvPNS1_9NodeValueERKT_RKNSE_10value_typeE(ptr noundef nonnull align 8 dereferenceable(344) %10, ptr noundef nonnull %6, ptr noundef nonnull align 1 dereferenceable(1) %4, ptr noundef nonnull align 8 dereferenceable(8) %1)
  call void @llvm.lifetime.end.p0(i64 1, ptr nonnull %4) #22
  br label %13

13:                                               ; preds = %12, %11
  ret void
}